Certificate:
    Data:
        Version: 3 (0x2)
        Serial Number:
            e1:c5:77:e0:5a:7a:e9:a4
        Signature Algorithm: sha1WithRSAEncryption
        Issuer: C=BR, ST=Distrito Federal, O=Pol\xC3\xADcia Civil do Distrito Federal, OU=Instituto de Criminal\xC3\xADstica, CN=IC
        Validity
            Not Before: Aug 10 19:06:35 2011 GMT
            Not After : Aug  7 19:06:35 2021 GMT
        Subject: C=BR, ST=Distrito Federal, O=Pol\xC3\xADcia Civil do Distrito Federal, OU=Instituto de Criminal\xC3\xADstica, CN=IC
        Subject Public Key Info:
            Public Key Algorithm: rsaEncryption
            RSA Public Key: (2048 bit)
                Modulus (2048 bit):
                    00:de:60:07:43:5d:3b:d2:94:37:63:a6:e3:fc:8a:
                    da:97:d4:c6:47:f0:a7:33:11:67:f8:82:73:41:44:
                    5c:73:56:9b:25:00:32:bd:53:97:25:9a:41:c8:2c:
                    01:f2:c9:ba:a5:88:ae:25:41:57:73:7b:18:43:95:
                    ae:13:ee:cd:10:f8:36:ff:ca:e8:40:ed:dc:3d:d8:
                    a6:02:2d:7a:31:4d:7d:ed:f2:bd:34:57:b8:1f:ee:
                    e7:c8:0e:94:fe:30:1d:cf:b8:9d:ea:0b:7b:8d:c1:
                    8e:1e:7a:28:44:2f:88:63:90:50:b2:bc:cc:62:7d:
                    2a:58:a2:81:15:9a:03:e8:d9:4d:93:ab:22:53:87:
                    7c:15:b3:31:74:ac:f6:a4:dc:b8:a8:f0:da:e7:85:
                    51:14:8d:b3:a3:39:a2:fb:6b:57:a5:93:32:f4:fc:
                    d0:fb:52:05:e6:7c:c5:04:08:4c:a0:60:d9:de:52:
                    2e:27:8f:16:f9:d7:de:db:4b:0a:c2:c2:8a:4c:cb:
                    1c:a9:5b:92:d2:6f:26:87:e4:db:5f:9b:2e:df:09:
                    42:32:e8:46:99:1e:a2:c0:85:60:50:b0:49:ca:19:
                    02:d6:41:1b:31:5d:e4:e5:6c:08:7a:74:1d:ef:78:
                    91:a5:5d:a7:05:70:39:41:94:d8:0d:fe:f7:ed:23:
                    09:b7
                Exponent: 65537 (0x10001)
        X509v3 extensions:
            X509v3 Subject Key Identifier: 
                6E:E2:48:A7:A4:B3:5A:F9:23:8F:91:8E:6F:D4:6E:95:FD:41:E3:30
            X509v3 Authority Key Identifier: 
                keyid:6E:E2:48:A7:A4:B3:5A:F9:23:8F:91:8E:6F:D4:6E:95:FD:41:E3:30
                DirName:/C=BR/ST=Distrito Federal/O=Pol\xC3\xADcia Civil do Distrito Federal/OU=Instituto de Criminal\xC3\xADstica/CN=IC
                serial:E1:C5:77:E0:5A:7A:E9:A4

            X509v3 Basic Constraints: 
                CA:TRUE
    Signature Algorithm: sha1WithRSAEncryption
        84:a3:b5:9f:74:41:a1:86:e2:9f:17:c5:0b:9a:42:53:0f:0d:
        6b:15:eb:c5:14:5a:d4:9d:ba:9b:43:82:33:f8:59:57:10:d8:
        fb:08:9c:a7:70:b7:24:5c:1f:73:a8:12:ab:d6:54:4a:34:c6:
        6c:37:77:ba:f2:35:dc:96:71:39:ae:51:c1:d6:bf:73:04:f7:
        ff:23:39:2d:38:11:52:53:6f:5e:57:f3:a2:c5:b2:e8:fb:94:
        71:f5:6b:67:2f:5c:82:a9:b2:d1:de:11:80:55:c0:5f:e5:9c:
        31:72:94:de:db:a9:6d:c2:9c:01:8e:37:c4:25:63:66:96:ba:
        58:59:3a:42:b6:94:2c:f6:ec:a1:12:bd:3f:5c:78:89:30:e2:
        df:b2:63:58:1c:21:57:64:ec:38:97:f4:6c:52:c2:2d:c9:15:
        7b:3b:0c:85:27:a9:a2:d1:d0:d4:3f:75:65:9f:f3:00:b2:d7:
        97:ae:ed:ff:b1:03:3d:b2:90:f8:3a:45:78:ea:41:3f:23:6f:
        e5:57:f6:3a:05:30:8d:89:ea:22:d8:c4:60:aa:c4:72:ba:33:
        18:34:f6:99:a0:d6:6c:f9:4e:5a:48:f0:61:f8:9f:5b:44:20:
        dc:89:89:50:d7:89:07:f1:1f:53:7c:e3:1d:0a:86:42:c4:1d:
        42:44:70:c4
-----BEGIN CERTIFICATE-----
MIIEiTCCA3GgAwIBAgIJAOHFd+BaeumkMA0GCSqGSIb3DQEBBQUAMIGJMQswCQYD
VQQGEwJCUjEZMBcGA1UECBMQRGlzdHJpdG8gRmVkZXJhbDErMCkGA1UEChQiUG9s
w61jaWEgQ2l2aWwgZG8gRGlzdHJpdG8gRmVkZXJhbDElMCMGA1UECxQcSW5zdGl0
dXRvIGRlIENyaW1pbmFsw61zdGljYTELMAkGA1UEAxMCSUMwHhcNMTEwODEwMTkw
NjM1WhcNMjEwODA3MTkwNjM1WjCBiTELMAkGA1UEBhMCQlIxGTAXBgNVBAgTEERp
c3RyaXRvIEZlZGVyYWwxKzApBgNVBAoUIlBvbMOtY2lhIENpdmlsIGRvIERpc3Ry
aXRvIEZlZGVyYWwxJTAjBgNVBAsUHEluc3RpdHV0byBkZSBDcmltaW5hbMOtc3Rp
Y2ExCzAJBgNVBAMTAklDMIIBIjANBgkqhkiG9w0BAQEFAAOCAQ8AMIIBCgKCAQEA
3mAHQ1070pQ3Y6bj/Iral9TGR/CnMxFn+IJzQURcc1abJQAyvVOXJZpByCwB8sm6
pYiuJUFXc3sYQ5WuE+7NEPg2/8roQO3cPdimAi16MU197fK9NFe4H+7nyA6U/jAd
z7id6gt7jcGOHnooRC+IY5BQsrzMYn0qWKKBFZoD6NlNk6siU4d8FbMxdKz2pNy4
qPDa54VRFI2zozmi+2tXpZMy9PzQ+1IF5nzFBAhMoGDZ3lIuJ48W+dfe20sKwsKK
TMscqVuS0m8mh+TbX5su3wlCMuhGmR6iwIVgULBJyhkC1kEbMV3k5WwIenQd73iR
pV2nBXA5QZTYDf737SMJtwIDAQABo4HxMIHuMB0GA1UdDgQWBBRu4kinpLNa+SOP
kY5v1G6V/UHjMDCBvgYDVR0jBIG2MIGzgBRu4kinpLNa+SOPkY5v1G6V/UHjMKGB
j6SBjDCBiTELMAkGA1UEBhMCQlIxGTAXBgNVBAgTEERpc3RyaXRvIEZlZGVyYWwx
KzApBgNVBAoUIlBvbMOtY2lhIENpdmlsIGRvIERpc3RyaXRvIEZlZGVyYWwxJTAj
BgNVBAsUHEluc3RpdHV0byBkZSBDcmltaW5hbMOtc3RpY2ExCzAJBgNVBAMTAklD
ggkA4cV34Fp66aQwDAYDVR0TBAUwAwEB/zANBgkqhkiG9w0BAQUFAAOCAQEAhKO1
n3RBoYbinxfFC5pCUw8NaxXrxRRa1J26m0OCM/hZVxDY+wicp3C3JFwfc6gSq9ZU
SjTGbDd3uvI13JZxOa5Rwda/cwT3/yM5LTgRUlNvXlfzosWy6PuUcfVrZy9cgqmy
0d4RgFXAX+WcMXKU3tupbcKcAY43xCVjZpa6WFk6QraULPbsoRK9P1x4iTDi37Jj
WBwhV2TsOJf0bFLCLckVezsMhSepotHQ1D91ZZ/zALLXl67t/7EDPbKQ+DpFeOpB
PyNv5Vf2OgUwjYnqItjEYKrEcrozGDT2maDWbPlOWkjwYfifW0Qg3ImJUNeJB/Ef
U3zjHQqGQsQdQkRwxA==
-----END CERTIFICATE-----
